; Function Attrs: mustprogress nounwind uwtable
define internal fastcc void @_ZN6hermes12_GLOBAL__N_15GenJS5visitEPNS_6ESTree19UnaryExpressionNodeE(ptr noundef nonnull align 8 captures(none) dereferenceable(16) %this, ptr noundef readonly %node) unnamed_addr #0 align 2 {
entry:
  %_operator = getelementptr inbounds nuw i8, ptr %node, i64 48
  %0 = load ptr, ptr %_operator, align 8
  %1 = load ptr, ptr %0, align 8
  %2 = load i8, ptr %1, align 1
  %conv = sext i8 %2 to i32
  %call3 = tail call i32 @isalpha(i32 noundef %conv) #14
  %tobool.not = icmp eq i32 %call3, 0
  %3 = load ptr, ptr %this, align 8
  %agg.tmp.sroa.2.0.call5.sroa_idx = getelementptr inbounds nuw i8, ptr %0, i64 8
  %agg.tmp.sroa.2.0.copyload = load i64, ptr %agg.tmp.sroa.2.0.call5.sroa_idx, align 8
  %OutBufEnd.i = getelementptr inbounds nuw i8, ptr %3, i64 16
  %4 = load ptr, ptr %OutBufEnd.i, align 8
  %OutBufCur.i = getelementptr inbounds nuw i8, ptr %3, i64 24
  %5 = load ptr, ptr %OutBufCur.i, align 8
  %sub.ptr.lhs.cast.i = ptrtoint ptr %4 to i64
  %sub.ptr.rhs.cast.i = ptrtoint ptr %5 to i64
  %sub.ptr.sub.i = sub i64 %sub.ptr.lhs.cast.i, %sub.ptr.rhs.cast.i
  %cmp.i = icmp ugt i64 %agg.tmp.sroa.2.0.copyload, %sub.ptr.sub.i
  br i1 %cmp.i, label %if.then.i, label %if.end.i

if.then.i:                                        ; preds = %entry
  %call3.i = tail call noundef nonnull align 8 dereferenceable(36) ptr @_ZN4llvh11raw_ostream5writeEPKcm(ptr noundef nonnull align 8 dereferenceable(36) %3, ptr noundef nonnull %1, i64 noundef %agg.tmp.sroa.2.0.copyload) #12
  br label %_ZN4llvh11raw_ostreamlsENS_9StringRefE.exit

if.end.i:                                         ; preds = %entry
  %tobool.not.i = icmp eq i64 %agg.tmp.sroa.2.0.copyload, 0
  br i1 %tobool.not.i, label %_ZN4llvh11raw_ostreamlsENS_9StringRefE.exit, label %if.then4.i

if.then4.i:                                       ; preds = %if.end.i
  tail call void @llvm.memcpy.p0.p0.i64(ptr align 1 %5, ptr nonnull align 1 %1, i64 %agg.tmp.sroa.2.0.copyload, i1 false)
  %6 = load ptr, ptr %OutBufCur.i, align 8
  %add.ptr.i = getelementptr inbounds i8, ptr %6, i64 %agg.tmp.sroa.2.0.copyload
  store ptr %add.ptr.i, ptr %OutBufCur.i, align 8
  br label %_ZN4llvh11raw_ostreamlsENS_9StringRefE.exit

_ZN4llvh11raw_ostreamlsENS_9StringRefE.exit:      ; preds = %if.then.i, %if.end.i, %if.then4.i
  br i1 %tobool.not, label %if.end, label %if.then

if.then:                                          ; preds = %_ZN4llvh11raw_ostreamlsENS_9StringRefE.exit
  %7 = load ptr, ptr %this, align 8
  %OutBufCur.i4 = getelementptr inbounds nuw i8, ptr %7, i64 24
  %8 = load ptr, ptr %OutBufCur.i4, align 8
  %OutBufEnd.i5 = getelementptr inbounds nuw i8, ptr %7, i64 16
  %9 = load ptr, ptr %OutBufEnd.i5, align 8
  %cmp.not.i = icmp ult ptr %8, %9
  br i1 %cmp.not.i, label %if.end.i8, label %if.then.i6

if.then.i6:                                       ; preds = %if.then
  %call.i = tail call noundef nonnull align 8 dereferenceable(36) ptr @_ZN4llvh11raw_ostream5writeEh(ptr noundef nonnull align 8 dereferenceable(36) %7, i8 noundef zeroext 32) #12
  br label %if.end

if.end.i8:                                        ; preds = %if.then
  %incdec.ptr.i = getelementptr inbounds nuw i8, ptr %8, i64 1
  store ptr %incdec.ptr.i, ptr %OutBufCur.i4, align 8
  store i8 32, ptr %8, align 1
  br label %if.end

if.end:                                           ; preds = %if.end.i8, %if.then.i6, %_ZN4llvh11raw_ostreamlsENS_9StringRefE.exit
  %_argument = getelementptr inbounds nuw i8, ptr %node, i64 56
  %10 = load ptr, ptr %_argument, align 8
  %tobool.not.i9 = icmp eq ptr %10, null
  br i1 %tobool.not.i9, label %_ZN6hermes12_GLOBAL__N_15GenJS10printChildEPNS_6ESTree4NodeES4_NS0_8ChildPosE.exit, label %if.end.i10

if.end.i10:                                       ; preds = %if.end
  %11 = getelementptr inbounds nuw i8, ptr %this, i64 8
  %this.val.i = load i8, ptr %11, align 8
  %call.i11 = tail call fastcc noundef i32 @_ZN6hermes12_GLOBAL__N_15GenJS10needParensEPNS_6ESTree4NodeES4_NS0_8ChildPosE(i8 %this.val.i, ptr noundef nonnull %node, ptr noundef nonnull %10, i32 noundef 2)
  switch i32 %call.i11, label %if.end6.i.thread [
    i32 1, label %if.then.i13
    i32 2, label %if.then3.i
  ]

if.then.i13:                                      ; preds = %if.end.i10
  %12 = load ptr, ptr %this, align 8
  %OutBufCur.i.i = getelementptr inbounds nuw i8, ptr %12, i64 24
  %13 = load ptr, ptr %OutBufCur.i.i, align 8
  %OutBufEnd.i.i = getelementptr inbounds nuw i8, ptr %12, i64 16
  %14 = load ptr, ptr %OutBufEnd.i.i, align 8
  %cmp.not.i.i = icmp ult ptr %13, %14
  br i1 %cmp.not.i.i, label %if.end.i.i, label %if.then.i.i

if.then.i.i:                                      ; preds = %if.then.i13
  %call.i.i = tail call noundef nonnull align 8 dereferenceable(36) ptr @_ZN4llvh11raw_ostream5writeEh(ptr noundef nonnull align 8 dereferenceable(36) %12, i8 noundef zeroext 40) #12
  br label %if.then8.i

if.end.i.i:                                       ; preds = %if.then.i13
  %incdec.ptr.i.i = getelementptr inbounds nuw i8, ptr %13, i64 1
  store ptr %incdec.ptr.i.i, ptr %OutBufCur.i.i, align 8
  store i8 40, ptr %13, align 1
  br label %if.then8.i

if.then3.i:                                       ; preds = %if.end.i10
  %15 = load ptr, ptr %this, align 8
  %OutBufCur.i3.i = getelementptr inbounds nuw i8, ptr %15, i64 24
  %16 = load ptr, ptr %OutBufCur.i3.i, align 8
  %OutBufEnd.i4.i = getelementptr inbounds nuw i8, ptr %15, i64 16
  %17 = load ptr, ptr %OutBufEnd.i4.i, align 8
  %cmp.not.i5.i = icmp ult ptr %16, %17
  br i1 %cmp.not.i5.i, label %if.end.i9.i, label %if.then.i6.i

if.then.i6.i:                                     ; preds = %if.then3.i
  %call.i7.i = tail call noundef nonnull align 8 dereferenceable(36) ptr @_ZN4llvh11raw_ostream5writeEh(ptr noundef nonnull align 8 dereferenceable(36) %15, i8 noundef zeroext 32) #12
  br label %if.end6.i.thread

if.end.i9.i:                                      ; preds = %if.then3.i
  %incdec.ptr.i10.i = getelementptr inbounds nuw i8, ptr %16, i64 1
  store ptr %incdec.ptr.i10.i, ptr %OutBufCur.i3.i, align 8
  store i8 32, ptr %16, align 1
  br label %if.end6.i.thread

if.end6.i.thread:                                 ; preds = %if.end.i10, %if.then.i6.i, %if.end.i9.i
  tail call fastcc void @_ZN6hermes6ESTree24RecursiveVisitorDispatchINS_12_GLOBAL__N_15GenJSELb1EE5visitERS3_PNS0_4NodeES7_(ptr noundef nonnull align 8 dereferenceable(16) %this, ptr noundef nonnull %10)
  br label %_ZN6hermes12_GLOBAL__N_15GenJS10printChildEPNS_6ESTree4NodeES4_NS0_8ChildPosE.exit

if.then8.i:                                       ; preds = %if.end.i.i, %if.then.i.i
  tail call fastcc void @_ZN6hermes6ESTree24RecursiveVisitorDispatchINS_12_GLOBAL__N_15GenJSELb1EE5visitERS3_PNS0_4NodeES7_(ptr noundef nonnull align 8 dereferenceable(16) %this, ptr noundef nonnull %10)
  %18 = load ptr, ptr %this, align 8
  %OutBufCur.i13.i = getelementptr inbounds nuw i8, ptr %18, i64 24
  %19 = load ptr, ptr %OutBufCur.i13.i, align 8
  %OutBufEnd.i14.i = getelementptr inbounds nuw i8, ptr %18, i64 16
  %20 = load ptr, ptr %OutBufEnd.i14.i, align 8
  %cmp.not.i15.i = icmp ult ptr %19, %20
  br i1 %cmp.not.i15.i, label %if.end.i19.i, label %if.then.i16.i

if.then.i16.i:                                    ; preds = %if.then8.i
  %call.i17.i = tail call noundef nonnull align 8 dereferenceable(36) ptr @_ZN4llvh11raw_ostream5writeEh(ptr noundef nonnull align 8 dereferenceable(36) %18, i8 noundef zeroext 41) #12
  br label %_ZN6hermes12_GLOBAL__N_15GenJS10printChildEPNS_6ESTree4NodeES4_NS0_8ChildPosE.exit

if.end.i19.i:                                     ; preds = %if.then8.i
  %incdec.ptr.i20.i = getelementptr inbounds nuw i8, ptr %19, i64 1
  store ptr %incdec.ptr.i20.i, ptr %OutBufCur.i13.i, align 8
  store i8 41, ptr %19, align 1
  br label %_ZN6hermes12_GLOBAL__N_15GenJS10printChildEPNS_6ESTree4NodeES4_NS0_8ChildPosE.exit

_ZN6hermes12_GLOBAL__N_15GenJS10printChildEPNS_6ESTree4NodeES4_NS0_8ChildPosE.exit: ; preds = %if.end6.i.thread, %if.end.i19.i, %if.then.i16.i, %if.end
  ret void
}